target datalayout = "e-m:e-p270:32:32-p271:32:32-p272:64:64-i64:64-i128:128-f80:128-n8:16:32:64-S128"
target triple = "x86_64-unknown-linux-gnu"

%struct.PRManagerHelper = type { %struct.PRManager, ptr, %struct.QemuMutex, ptr }
%struct.PRManager = type { %struct.Object }
%struct.Object = type { ptr, ptr, ptr, i32, ptr }
%struct.QemuMutex = type { %union.pthread_mutex_t, i8 }
%union.pthread_mutex_t = type { %struct.__pthread_mutex_s }
%struct.__pthread_mutex_s = type { i32, i32, i32, i32, i32, i16, i16, %struct.__pthread_internal_list }
%struct.__pthread_internal_list = type { ptr, ptr }

@.str = private unnamed_addr constant [18 x i8] c"pr-manager-helper\00", align 1
@.str.2 = private unnamed_addr constant [33 x i8] c"../qemu/scsi/pr-manager-helper.c\00", align 1
@__func__.PR_MANAGER_HELPER = private unnamed_addr constant [18 x i8] c"PR_MANAGER_HELPER\00", align 1

; Function Attrs: nounwind sspstrong uwtable
define internal ptr @PR_MANAGER_HELPER(ptr noundef %obj) #0 {
entry:
  %obj.addr = alloca ptr, align 8
  store ptr %obj, ptr %obj.addr, align 8
  %0 = load ptr, ptr %obj.addr, align 8
  %call = call ptr @object_dynamic_cast_assert(ptr noundef %0, ptr noundef @.str, ptr noundef @.str.2, i32 noundef 30, ptr noundef @__func__.PR_MANAGER_HELPER)
  ret ptr %call
}

; Function Attrs: nounwind sspstrong uwtable
define internal void @set_path(ptr noundef %obj, ptr noundef %str, ptr noundef %errp) #0 {
entry:
  %obj.addr = alloca ptr, align 8
  %str.addr = alloca ptr, align 8
  %errp.addr = alloca ptr, align 8
  %pr_mgr = alloca ptr, align 8
  store ptr %obj, ptr %obj.addr, align 8
  store ptr %str, ptr %str.addr, align 8
  store ptr %errp, ptr %errp.addr, align 8
  %0 = load ptr, ptr %obj.addr, align 8
  %call = call ptr @PR_MANAGER_HELPER(ptr noundef %0)
  store ptr %call, ptr %pr_mgr, align 8
  %1 = load ptr, ptr %pr_mgr, align 8
  %path = getelementptr inbounds %struct.PRManagerHelper, ptr %1, i32 0, i32 1
  %2 = load ptr, ptr %path, align 8
  call void @g_free(ptr noundef %2)
  %3 = load ptr, ptr %str.addr, align 8
  %call1 = call noalias ptr @g_strdup(ptr noundef %3)
  %4 = load ptr, ptr %pr_mgr, align 8
  %path2 = getelementptr inbounds %struct.PRManagerHelper, ptr %4, i32 0, i32 1
  store ptr %call1, ptr %path2, align 8
  ret void
}