; Function Attrs: nounwind sspstrong uwtable
define internal void @set_path(ptr noundef %obj, ptr noundef %str, ptr readnone captures(none) %errp) #0 {
entry:
  %call.i = tail call ptr @object_dynamic_cast_assert(ptr noundef %obj, ptr noundef nonnull @.str, ptr noundef nonnull @.str.2, i32 noundef 30, ptr noundef nonnull @__func__.PR_MANAGER_HELPER) #7
  %path = getelementptr inbounds nuw i8, ptr %call.i, i64 40
  %0 = load ptr, ptr %path, align 8
  tail call void @g_free(ptr noundef %0) #7
  %call1 = tail call noalias ptr @g_strdup(ptr noundef %str) #7
  store ptr %call1, ptr %path, align 8
  ret void
}